# SymbolsHelper-Confirmed: 6.6.1 amd64 armel armhf hppa i386 powerpc riscv64 sh4
libQt6RemoteObjects.so.6 libqt6remoteobjects6 #MINVER#
* Build-Depends-Package: qt6-remoteobjects-dev
 Qt_6@Qt_6 6.6.1
 Qt_6_PRIVATE_API@Qt_6_PRIVATE_API 6.6.1
 _Z52qRegisterNormalizedMetaType_QRemoteObjectPendingCallRK10QByteArray@Qt_6 6.6.1
 _Z55qRegisterNormalizedMetaType_QRemoteObjectSourceLocationRK10QByteArray@Qt_6 6.6.1
 _Z56qRegisterNormalizedMetaType_QRemoteObjectSourceLocationsRK10QByteArray@Qt_6 6.6.1
 _ZGVZN9QMetaType21registerConverterImplI5QHashI7QString31QRemoteObjectSourceLocationInfoE9QIterableI16QMetaAssociationEEEbSt8functionIFbPKvPvEES_S_E10unregister@Qt_6 6.6.1
 _ZGVZN9QMetaType21registerConverterImplI5QHashIi10QByteArrayE9QIterableI16QMetaAssociationEEEbSt8functionIFbPKvPvEES_S_E10unregister@Qt_6 6.6.1
 _ZGVZN9QMetaType21registerConverterImplI5QListI21QPersistentModelIndexE9QIterableI13QMetaSequenceEEEbSt8functionIFbPKvPvEES_S_E10unregister@Qt_6 6.6.1
 _ZGVZN9QMetaType21registerConverterImplI5QListIN2Qt11OrientationEE9QIterableI13QMetaSequenceEEEbSt8functionIFbPKvPvEES_S_E10unregister@Qt_6 6.6.1
 _ZGVZN9QMetaType21registerConverterImplI5QListIN9QtPrivate10ModelIndexEE9QIterableI13QMetaSequenceEEEbSt8functionIFbPKvPvEES_S_E10unregister@Qt_6_PRIVATE_API 6.6.1
 _ZGVZN9QMetaType21registerConverterImplI5QListIiE9QIterableI13QMetaSequenceEEEbSt8functionIFbPKvPvEES_S_E10unregister@Qt_6 6.6.1
 _ZGVZN9QMetaType23registerMutableViewImplI5QHashI7QString31QRemoteObjectSourceLocationInfoE9QIterableI16QMetaAssociationEEEbSt8functionIFbPvS9_EES_S_E10unregister@Qt_6 6.6.1
 _ZGVZN9QMetaType23registerMutableViewImplI5QHashIi10QByteArrayE9QIterableI16QMetaAssociationEEEbSt8functionIFbPvS8_EES_S_E10unregister@Qt_6 6.6.1
 _ZGVZN9QMetaType23registerMutableViewImplI5QListI21QPersistentModelIndexE9QIterableI13QMetaSequenceEEEbSt8functionIFbPvS8_EES_S_E10unregister@Qt_6 6.6.1
 _ZGVZN9QMetaType23registerMutableViewImplI5QListIN2Qt11OrientationEE9QIterableI13QMetaSequenceEEEbSt8functionIFbPvS9_EES_S_E10unregister@Qt_6 6.6.1
 _ZGVZN9QMetaType23registerMutableViewImplI5QListIN9QtPrivate10ModelIndexEE9QIterableI13QMetaSequenceEEEbSt8functionIFbPvS9_EES_S_E10unregister@Qt_6_PRIVATE_API 6.6.1
 _ZGVZN9QMetaType23registerMutableViewImplI5QListIiE9QIterableI13QMetaSequenceEEEbSt8functionIFbPvS7_EES_S_E10unregister@Qt_6 6.6.1
 _ZN12SourceApiMapD0Ev@Qt_6 6.6.1
 _ZN12SourceApiMapD1Ev@Qt_6 6.6.1
 _ZN12SourceApiMapD2Ev@Qt_6 6.6.1
 _ZN13QMetaSequence12MetaSequenceI5QListI21QPersistentModelIndexEE5valueE@Qt_6 6.6.1
 _ZN13QMetaSequence12MetaSequenceI5QListI8QVariantEE5valueE@Qt_6 6.6.1
 _ZN13QMetaSequence12MetaSequenceI5QListIN2Qt11OrientationEEE5valueE@Qt_6 6.6.1
 _ZN13QMetaSequence12MetaSequenceI5QListIN9QtPrivate10ModelIndexEEE5valueE@Qt_6_PRIVATE_API 6.6.1
 _ZN13QMetaSequence12MetaSequenceI5QListIiEE5valueE@Qt_6 6.6.1
 _ZN15QtRemoteObjects20copyStoredPropertiesEPK11QMetaObjectPKvPv@Qt_6 6.6.1
 _ZN15QtRemoteObjects20copyStoredPropertiesEPK11QMetaObjectPKvR11QDataStream@Qt_6 6.6.1
 _ZN15QtRemoteObjects20copyStoredPropertiesEPK11QMetaObjectR11QDataStreamPv@Qt_6 6.6.1
 _ZN16QMetaAssociation15MetaAssociationI24QtROAssociativeContainerE5valueE@Qt_6_PRIVATE_API 6.6.1
 _ZN16QMetaAssociation15MetaAssociationI4QMapI7QString8QVariantEE5valueE@Qt_6 6.6.1
 _ZN16QMetaAssociation15MetaAssociationI5QHashI7QString31QRemoteObjectSourceLocationInfoEE5valueE@Qt_6 6.6.1
 _ZN16QMetaAssociation15MetaAssociationI5QHashIi10QByteArrayEE5valueE@Qt_6 6.6.1
 _ZN16QtROIoDeviceBase11qt_metacallEN11QMetaObject4CallEiPPv@Qt_6 6.6.1
 _ZN16QtROIoDeviceBase11qt_metacastEPKc@Qt_6 6.6.1
 _ZN16QtROIoDeviceBase12disconnectedEv@Qt_6 6.6.1
 _ZN16QtROIoDeviceBase12removeSourceERK7QString@Qt_6 6.6.1
 _ZN16QtROIoDeviceBase16staticMetaObjectE@Qt_6 6.6.1
 _ZN16QtROIoDeviceBase20initializeDataStreamEv@Qt_6 6.6.1
 _ZN16QtROIoDeviceBase4readERN15QtRemoteObjects27QRemoteObjectPacketTypeEnumER7QString@Qt_6 6.6.1
 _ZN16QtROIoDeviceBase5closeEv@Qt_6 6.6.1
 _ZN16QtROIoDeviceBase5writeERK10QByteArray@Qt_6 6.6.1
 _ZN16QtROIoDeviceBase5writeERK10QByteArrayx@Qt_6 6.6.1
 _ZN16QtROIoDeviceBase9addSourceERK7QString@Qt_6 6.6.1
 _ZN16QtROIoDeviceBase9readyReadEv@Qt_6 6.6.1
 _ZN16QtROIoDeviceBaseC1EP7QObject@Qt_6 6.6.1
 _ZN16QtROIoDeviceBaseC1ER23QtROIoDeviceBasePrivateP7QObject@Qt_6_PRIVATE_API 6.6.1
 _ZN16QtROIoDeviceBaseC2EP7QObject@Qt_6 6.6.1
 _ZN16QtROIoDeviceBaseC2ER23QtROIoDeviceBasePrivateP7QObject@Qt_6_PRIVATE_API 6.6.1
 _ZN16QtROIoDeviceBaseD0Ev@Qt_6 6.6.1
 _ZN16QtROIoDeviceBaseD1Ev@Qt_6 6.6.1
 _ZN16QtROIoDeviceBaseD2Ev@Qt_6 6.6.1
 _ZN17QRemoteObjectHost10setHostUrlERK4QUrlN21QRemoteObjectHostBase14AllowedSchemasE@Qt_6 6.6.1
 _ZN17QRemoteObjectHost11qt_metacallEN11QMetaObject4CallEiPPv@Qt_6 6.6.1
 _ZN17QRemoteObjectHost11qt_metacastEPKc@Qt_6 6.6.1
 _ZN17QRemoteObjectHost14hostUrlChangedEv@Qt_6 6.6.1
 _ZN17QRemoteObjectHost16staticMetaObjectE@Qt_6 6.6.1
 _ZN17QRemoteObjectHostC1EP7QObject@Qt_6 6.6.1
 _ZN17QRemoteObjectHostC1ER24QRemoteObjectHostPrivateP7QObject@Qt_6_PRIVATE_API 6.6.1
 _ZN17QRemoteObjectHostC1ERK4QUrlP7QObject@Qt_6 6.6.1
 _ZN17QRemoteObjectHostC1ERK4QUrlS2_N21QRemoteObjectHostBase14AllowedSchemasEP7QObject@Qt_6 6.6.1
 _ZN17QRemoteObjectHostC2EP7QObject@Qt_6 6.6.1
 _ZN17QRemoteObjectHostC2ER24QRemoteObjectHostPrivateP7QObject@Qt_6_PRIVATE_API 6.6.1
 _ZN17QRemoteObjectHostC2ERK4QUrlP7QObject@Qt_6 6.6.1
 _ZN17QRemoteObjectHostC2ERK4QUrlS2_N21QRemoteObjectHostBase14AllowedSchemasEP7QObject@Qt_6 6.6.1
 _ZN17QRemoteObjectHostD0Ev@Qt_6 6.6.1
 _ZN17QRemoteObjectHostD1Ev@Qt_6 6.6.1
 _ZN17QRemoteObjectHostD2Ev@Qt_6 6.6.1
 _ZN17QRemoteObjectNode10timerEventEP11QTimerEvent@Qt_6 6.6.1
 _ZN17QRemoteObjectNode11qt_metacallEN11QMetaObject4CallEiPPv@Qt_6 6.6.1
 _ZN17QRemoteObjectNode11qt_metacastEPKc@Qt_6 6.6.1
 _ZN17QRemoteObjectNode12acquireModelERK7QStringN15QtRemoteObjects13InitialActionERK5QListIiE@Qt_6 6.6.1
 _ZN17QRemoteObjectNode13connectToNodeERK4QUrl@Qt_6 6.6.1
 _ZN17QRemoteObjectNode14acquireDynamicERK7QString@Qt_6 6.6.1
 _ZN17QRemoteObjectNode14setRegistryUrlERK4QUrl@Qt_6 6.6.1
 _ZN17QRemoteObjectNode15waitForRegistryEi@Qt_6 6.6.1
 _ZN17QRemoteObjectNode16staticMetaObjectE@Qt_6 6.6.1
 _ZN17QRemoteObjectNode17initializeReplicaEP20QRemoteObjectReplicaRK7QString@Qt_6 6.6.1
 _ZN17QRemoteObjectNode17persistPropertiesERK7QStringRK10QByteArrayRK5QListI8QVariantE@Qt_6 6.6.1
 _ZN17QRemoteObjectNode17remoteObjectAddedERKSt4pairI7QString31QRemoteObjectSourceLocationInfoE@Qt_6 6.6.1
 _ZN17QRemoteObjectNode17setPersistedStoreEP35QRemoteObjectAbstractPersistedStore@Qt_6 6.6.1
 _ZN17QRemoteObjectNode18retrievePropertiesERK7QStringRK10QByteArray@Qt_6 6.6.1
 _ZN17QRemoteObjectNode19remoteObjectRemovedERKSt4pairI7QString31QRemoteObjectSourceLocationInfoE@Qt_6 6.6.1
 _ZN17QRemoteObjectNode20setHeartbeatIntervalEi@Qt_6 6.6.1
 _ZN17QRemoteObjectNode22registerExternalSchemaERK7QStringSt8functionIFv4QUrlEE@Qt_6 6.6.1
 _ZN17QRemoteObjectNode23addClientSideConnectionEP9QIODevice@Qt_6 6.6.1
 _ZN17QRemoteObjectNode24heartbeatIntervalChangedEi@Qt_6 6.6.1
 _ZN17QRemoteObjectNode5errorENS_9ErrorCodeE@Qt_6 6.6.1
 _ZN17QRemoteObjectNode7setNameERK7QString@Qt_6 6.6.1
 _ZN17QRemoteObjectNodeC1EP7QObject@Qt_6 6.6.1
 _ZN17QRemoteObjectNodeC1ER24QRemoteObjectNodePrivateP7QObject@Qt_6_PRIVATE_API 6.6.1
 _ZN17QRemoteObjectNodeC1ERK4QUrlP7QObject@Qt_6 6.6.1
 _ZN17QRemoteObjectNodeC2EP7QObject@Qt_6 6.6.1
 _ZN17QRemoteObjectNodeC2ER24QRemoteObjectNodePrivateP7QObject@Qt_6_PRIVATE_API 6.6.1
 _ZN17QRemoteObjectNodeC2ERK4QUrlP7QObject@Qt_6 6.6.1
 _ZN17QRemoteObjectNodeD0Ev@Qt_6 6.6.1
 _ZN17QRemoteObjectNodeD1Ev@Qt_6 6.6.1
 _ZN17QRemoteObjectNodeD2Ev@Qt_6 6.6.1
 _ZN17QtROClientFactory8instanceEv@Qt_6 6.6.1
 _ZN17QtROServerFactory8instanceEv@Qt_6 6.6.1
 _ZN18QtROClientIoDevice11qt_metacallEN11QMetaObject4CallEiPPv@Qt_6 6.6.1
 _ZN18QtROClientIoDevice11qt_metacastEPKc@Qt_6 6.6.1
 _ZN18QtROClientIoDevice15shouldReconnectEPS_@Qt_6 6.6.1
 _ZN18QtROClientIoDevice16staticMetaObjectE@Qt_6 6.6.1
 _ZN18QtROClientIoDevice20disconnectFromServerEv@Qt_6 6.6.1
 _ZN18QtROClientIoDevice6setUrlERK4QUrl@Qt_6 6.6.1
 _ZN18QtROClientIoDeviceC1EP7QObject@Qt_6 6.6.1
 _ZN18QtROClientIoDeviceC2EP7QObject@Qt_6 6.6.1
 _ZN18QtROClientIoDeviceD0Ev@Qt_6 6.6.1
 _ZN18QtROClientIoDeviceD1Ev@Qt_6 6.6.1
 _ZN18QtROClientIoDeviceD2Ev@Qt_6 6.6.1
 _ZN18QtROServerIoDevice11qt_metacallEN11QMetaObject4CallEiPPv@Qt_6 6.6.1
 _ZN18QtROServerIoDevice11qt_metacastEPKc@Qt_6 6.6.1
 _ZN18QtROServerIoDevice16staticMetaObjectE@Qt_6 6.6.1
 _ZN18QtROServerIoDeviceC1EP7QObject@Qt_6 6.6.1
 _ZN18QtROServerIoDeviceC2EP7QObject@Qt_6 6.6.1
 _ZN20QRemoteObjectReplica10initializeEv@Qt_6 6.6.1
 _ZN20QRemoteObjectReplica11initializedEv@Qt_6 6.6.1
 _ZN20QRemoteObjectReplica11qt_metacallEN11QMetaObject4CallEiPPv@Qt_6 6.6.1
 _ZN20QRemoteObjectReplica11qt_metacastEPKc@Qt_6 6.6.1
 _ZN20QRemoteObjectReplica12stateChangedENS_5StateES0_@Qt_6 6.6.1
 _ZN20QRemoteObjectReplica13sendWithReplyEN11QMetaObject4CallEiRK5QListI8QVariantE@Qt_6 6.6.1
 _ZN20QRemoteObjectReplica13setPropertiesEO5QListI8QVariantE@Qt_6 6.6.1
 _ZN20QRemoteObjectReplica13waitForSourceEi@Qt_6 6.6.1
 _ZN20QRemoteObjectReplica14initializeNodeEP17QRemoteObjectNodeRK7QString@Qt_6 6.6.1
 _ZN20QRemoteObjectReplica16staticMetaObjectE@Qt_6 6.6.1
 _ZN20QRemoteObjectReplica4sendEN11QMetaObject4CallEiRK5QListI8QVariantE@Qt_6 6.6.1
 _ZN20QRemoteObjectReplica7setNodeEP17QRemoteObjectNode@Qt_6 6.6.1
 _ZN20QRemoteObjectReplica8notifiedEv@Qt_6 6.6.1
 _ZN20QRemoteObjectReplica8setChildEiRK8QVariant@Qt_6 6.6.1
 _ZN20QRemoteObjectReplicaC1ENS_15ConstructorTypeE@Qt_6 6.6.1
 _ZN20QRemoteObjectReplicaC1ER14QObjectPrivateP7QObject@Qt_6 6.6.1
 _ZN20QRemoteObjectReplicaC2ENS_15ConstructorTypeE@Qt_6 6.6.1
 _ZN20QRemoteObjectReplicaC2ER14QObjectPrivateP7QObject@Qt_6 6.6.1
 _ZN20QRemoteObjectReplicaD0Ev@Qt_6 6.6.1
 _ZN20QRemoteObjectReplicaD1Ev@Qt_6 6.6.1
 _ZN20QRemoteObjectReplicaD2Ev@Qt_6 6.6.1
 _ZN21QRemoteObjectHostBase10setHostUrlERK4QUrlNS_14AllowedSchemasE@Qt_6 6.6.1
 _ZN21QRemoteObjectHostBase11qt_metacallEN11QMetaObject4CallEiPPv@Qt_6 6.6.1
 _ZN21QRemoteObjectHostBase11qt_metacastEPKc@Qt_6 6.6.1
 _ZN21QRemoteObjectHostBase12reverseProxyESt8functionIFb11QStringViewS1_EE@Qt_6 6.6.1
 _ZN21QRemoteObjectHostBase14enableRemotingEP18QAbstractItemModelRK7QString5QListIiEP19QItemSelectionModel@Qt_6 6.6.1
 _ZN21QRemoteObjectHostBase14enableRemotingEP7QObjectPK12SourceApiMapS1_@Qt_6 6.6.1
 _ZN21QRemoteObjectHostBase14enableRemotingEP7QObjectRK7QString@Qt_6 6.6.1
 _ZN21QRemoteObjectHostBase15disableRemotingEP7QObject@Qt_6 6.6.1
 _ZN21QRemoteObjectHostBase16staticMetaObjectE@Qt_6 6.6.1
 _ZN21QRemoteObjectHostBase21addHostSideConnectionEP9QIODevice@Qt_6 6.6.1
 _ZN21QRemoteObjectHostBase5proxyERK4QUrlS2_St8functionIFb11QStringViewS4_EE@Qt_6 6.6.1
 _ZN21QRemoteObjectHostBase7setNameERK7QString@Qt_6 6.6.1
 _ZN21QRemoteObjectHostBaseC1ER28QRemoteObjectHostBasePrivateP7QObject@Qt_6_PRIVATE_API 6.6.1
 _ZN21QRemoteObjectHostBaseC2ER28QRemoteObjectHostBasePrivateP7QObject@Qt_6_PRIVATE_API 6.6.1
 _ZN21QRemoteObjectHostBaseD0Ev@Qt_6 6.6.1
 _ZN21QRemoteObjectHostBaseD1Ev@Qt_6 6.6.1
 _ZN21QRemoteObjectHostBaseD2Ev@Qt_6 6.6.1
 _ZN21QRemoteObjectRegistry10initializeEv@Qt_6 6.6.1
 _ZN21QRemoteObjectRegistry11qt_metacallEN11QMetaObject4CallEiPPv@Qt_6 6.6.1
 _ZN21QRemoteObjectRegistry11qt_metacastEPKc@Qt_6 6.6.1
 _ZN21QRemoteObjectRegistry12removeSourceERKSt4pairI7QString31QRemoteObjectSourceLocationInfoE@Qt_6 6.6.1
 _ZN21QRemoteObjectRegistry16staticMetaObjectE@Qt_6 6.6.1
 _ZN21QRemoteObjectRegistry17registerMetatypesEv@Qt_6 6.6.1
 _ZN21QRemoteObjectRegistry17remoteObjectAddedERKSt4pairI7QString31QRemoteObjectSourceLocationInfoE@Qt_6 6.6.1
 _ZN21QRemoteObjectRegistry19remoteObjectRemovedERKSt4pairI7QString31QRemoteObjectSourceLocationInfoE@Qt_6 6.6.1
 _ZN21QRemoteObjectRegistry22pushToRegistryIfNeededEv@Qt_6 6.6.1
 _ZN21QRemoteObjectRegistry28notifySourceLocationsChangedEv@Qt_6 6.6.1
 _ZN21QRemoteObjectRegistry9addSourceERKSt4pairI7QString31QRemoteObjectSourceLocationInfoE@Qt_6 6.6.1
 _ZN21QRemoteObjectRegistryC1EP17QRemoteObjectNodeRK7QStringP7QObject@Qt_6 6.6.1
 _ZN21QRemoteObjectRegistryC1EP7QObject@Qt_6 6.6.1
 _ZN21QRemoteObjectRegistryC2EP17QRemoteObjectNodeRK7QStringP7QObject@Qt_6 6.6.1
 _ZN21QRemoteObjectRegistryC2EP7QObject@Qt_6 6.6.1
 _ZN21QRemoteObjectRegistryD0Ev@Qt_6 6.6.1
 _ZN21QRemoteObjectRegistryD1Ev@Qt_6 6.6.1
 _ZN21QRemoteObjectRegistryD2Ev@Qt_6 6.6.1
 _ZN24QRemoteObjectPendingCall15waitForFinishedEi@Qt_6 6.6.1
 _ZN24QRemoteObjectPendingCall17fromCompletedCallERK8QVariant@Qt_6 6.6.1
 _ZN24QRemoteObjectPendingCallC1EP28QRemoteObjectPendingCallData@Qt_6_PRIVATE_API 6.6.1
 _ZN24QRemoteObjectPendingCallC1ERKS_@Qt_6 6.6.1
 _ZN24QRemoteObjectPendingCallC1Ev@Qt_6 6.6.1
 _ZN24QRemoteObjectPendingCallC2EP28QRemoteObjectPendingCallData@Qt_6_PRIVATE_API 6.6.1
 _ZN24QRemoteObjectPendingCallC2ERKS_@Qt_6 6.6.1
 _ZN24QRemoteObjectPendingCallC2Ev@Qt_6 6.6.1
 _ZN24QRemoteObjectPendingCallD1Ev@Qt_6 6.6.1
 _ZN24QRemoteObjectPendingCallD2Ev@Qt_6 6.6.1
 _ZN24QRemoteObjectPendingCallaSERKS_@Qt_6 6.6.1
 _ZN25QAbstractItemModelReplica11initializedEv@Qt_6 6.6.1
 _ZN25QAbstractItemModelReplica11qt_metacallEN11QMetaObject4CallEiPPv@Qt_6 6.6.1
 _ZN25QAbstractItemModelReplica11qt_metacastEPKc@Qt_6 6.6.1
 (subst)_ZN25QAbstractItemModelReplica16setRootCacheSizeE{size_t}@Qt_6 6.6.1
 _ZN25QAbstractItemModelReplica16staticMetaObjectE@Qt_6 6.6.1
 _ZN25QAbstractItemModelReplica7setDataERK11QModelIndexRK8QVarianti@Qt_6 6.6.1
 _ZN25QAbstractItemModelReplicaC1EP39QAbstractItemModelReplicaImplementationN15QtRemoteObjects13InitialActionERK5QListIiE@Qt_6_PRIVATE_API 6.6.1
 _ZN25QAbstractItemModelReplicaC2EP39QAbstractItemModelReplicaImplementationN15QtRemoteObjects13InitialActionERK5QListIiE@Qt_6_PRIVATE_API 6.6.1
 _ZN25QAbstractItemModelReplicaD0Ev@Qt_6 6.6.1
 _ZN25QAbstractItemModelReplicaD1Ev@Qt_6 6.6.1
 _ZN25QAbstractItemModelReplicaD2Ev@Qt_6 6.6.1
 _ZN25QConnectionAbstractServer11qt_metacallEN11QMetaObject4CallEiPPv@Qt_6 6.6.1
 _ZN25QConnectionAbstractServer11qt_metacastEPKc@Qt_6 6.6.1
 _ZN25QConnectionAbstractServer13newConnectionEv@Qt_6 6.6.1
 _ZN25QConnectionAbstractServer16staticMetaObjectE@Qt_6 6.6.1
 _ZN25QConnectionAbstractServer21nextPendingConnectionEv@Qt_6 6.6.1
 _ZN25QConnectionAbstractServerC1EP7QObject@Qt_6 6.6.1
 _ZN25QConnectionAbstractServerC2EP7QObject@Qt_6 6.6.1
 _ZN25QConnectionAbstractServerD0Ev@Qt_6 6.6.1
 _ZN25QConnectionAbstractServerD1Ev@Qt_6 6.6.1
 _ZN25QConnectionAbstractServerD2Ev@Qt_6 6.6.1
 _ZN25QRemoteObjectRegistryHost11qt_metacallEN11QMetaObject4CallEiPPv@Qt_6 6.6.1
 _ZN25QRemoteObjectRegistryHost11qt_metacastEPKc@Qt_6 6.6.1
 _ZN25QRemoteObjectRegistryHost14setRegistryUrlERK4QUrl@Qt_6 6.6.1
 _ZN25QRemoteObjectRegistryHost16staticMetaObjectE@Qt_6 6.6.1
 _ZN25QRemoteObjectRegistryHostC1ER32QRemoteObjectRegistryHostPrivateP7QObject@Qt_6_PRIVATE_API 6.6.1
 _ZN25QRemoteObjectRegistryHostC1ERK4QUrlP7QObject@Qt_6 6.6.1
 _ZN25QRemoteObjectRegistryHostC2ER32QRemoteObjectRegistryHostPrivateP7QObject@Qt_6_PRIVATE_API 6.6.1
 _ZN25QRemoteObjectRegistryHostC2ERK4QUrlP7QObject@Qt_6 6.6.1
 _ZN25QRemoteObjectRegistryHostD0Ev@Qt_6 6.6.1
 _ZN25QRemoteObjectRegistryHostD1Ev@Qt_6 6.6.1
 _ZN25QRemoteObjectRegistryHostD2Ev@Qt_6 6.6.1
 _ZN26QRemoteObjectSettingsStore11qt_metacallEN11QMetaObject4CallEiPPv@Qt_6 6.6.1
 _ZN26QRemoteObjectSettingsStore11qt_metacastEPKc@Qt_6 6.6.1
 _ZN26QRemoteObjectSettingsStore14savePropertiesERK7QStringRK10QByteArrayRK5QListI8QVariantE@Qt_6 6.6.1
 _ZN26QRemoteObjectSettingsStore16staticMetaObjectE@Qt_6 6.6.1
 _ZN26QRemoteObjectSettingsStore17restorePropertiesERK7QStringRK10QByteArray@Qt_6 6.6.1
 _ZN26QRemoteObjectSettingsStoreC1EP7QObject@Qt_6 6.6.1
 _ZN26QRemoteObjectSettingsStoreC2EP7QObject@Qt_6 6.6.1
 _ZN26QRemoteObjectSettingsStoreD0Ev@Qt_6 6.6.1
 _ZN26QRemoteObjectSettingsStoreD1Ev@Qt_6 6.6.1
 _ZN26QRemoteObjectSettingsStoreD2Ev@Qt_6 6.6.1
 _ZN27QRemoteObjectDynamicReplica11qt_metacallEN11QMetaObject4CallEiPPv@Qt_6 6.6.1
 _ZN27QRemoteObjectDynamicReplica11qt_metacastEPKc@Qt_6 6.6.1
 _ZN27QRemoteObjectDynamicReplicaC1EP17QRemoteObjectNodeRK7QString@Qt_6 6.6.1
 _ZN27QRemoteObjectDynamicReplicaC1Ev@Qt_6 6.6.1
 _ZN27QRemoteObjectDynamicReplicaC2EP17QRemoteObjectNodeRK7QString@Qt_6 6.6.1
 _ZN27QRemoteObjectDynamicReplicaC2Ev@Qt_6 6.6.1
 _ZN27QRemoteObjectDynamicReplicaD0Ev@Qt_6 6.6.1
 _ZN27QRemoteObjectDynamicReplicaD1Ev@Qt_6 6.6.1
 _ZN27QRemoteObjectDynamicReplicaD2Ev@Qt_6 6.6.1
 _ZN31QRemoteObjectPendingCallWatcher11qt_metacallEN11QMetaObject4CallEiPPv@Qt_6 6.6.1
 _ZN31QRemoteObjectPendingCallWatcher11qt_metacastEPKc@Qt_6 6.6.1
 _ZN31QRemoteObjectPendingCallWatcher15waitForFinishedEv@Qt_6 6.6.1
 _ZN31QRemoteObjectPendingCallWatcher16staticMetaObjectE@Qt_6 6.6.1
 _ZN31QRemoteObjectPendingCallWatcher8finishedEPS_@Qt_6 6.6.1
 _ZN31QRemoteObjectPendingCallWatcherC1ERK24QRemoteObjectPendingCallP7QObject@Qt_6 6.6.1
 _ZN31QRemoteObjectPendingCallWatcherC2ERK24QRemoteObjectPendingCallP7QObject@Qt_6 6.6.1
 _ZN31QRemoteObjectPendingCallWatcherD0Ev@Qt_6 6.6.1
 _ZN31QRemoteObjectPendingCallWatcherD1Ev@Qt_6 6.6.1
 _ZN31QRemoteObjectPendingCallWatcherD2Ev@Qt_6 6.6.1
 _ZN35QRemoteObjectAbstractPersistedStore11qt_metacallEN11QMetaObject4CallEiPPv@Qt_6 6.6.1
 _ZN35QRemoteObjectAbstractPersistedStore11qt_metacastEPKc@Qt_6 6.6.1
 _ZN35QRemoteObjectAbstractPersistedStore16staticMetaObjectE@Qt_6 6.6.1
 _ZN35QRemoteObjectAbstractPersistedStoreC1EP7QObject@Qt_6 6.6.1
 _ZN35QRemoteObjectAbstractPersistedStoreC1ER42QRemoteObjectAbstractPersistedStorePrivateP7QObject@Qt_6_PRIVATE_API 6.6.1
 _ZN35QRemoteObjectAbstractPersistedStoreC2EP7QObject@Qt_6 6.6.1
 _ZN35QRemoteObjectAbstractPersistedStoreC2ER42QRemoteObjectAbstractPersistedStorePrivateP7QObject@Qt_6_PRIVATE_API 6.6.1
 _ZN35QRemoteObjectAbstractPersistedStoreD0Ev@Qt_6 6.6.1
 _ZN35QRemoteObjectAbstractPersistedStoreD1Ev@Qt_6 6.6.1
 _ZN35QRemoteObjectAbstractPersistedStoreD2Ev@Qt_6 6.6.1
 _ZN9QtPrivate22qtro_method_index_implEPK11QMetaObjectPKcS4_PiPPKi@Qt_6 6.6.1
 _ZNK16QtROIoDeviceBase10metaObjectEv@Qt_6 6.6.1
 _ZNK16QtROIoDeviceBase13remoteObjectsEv@Qt_6 6.6.1
 _ZNK16QtROIoDeviceBase14bytesAvailableEv@Qt_6 6.6.1
 _ZNK16QtROIoDeviceBase6isOpenEv@Qt_6 6.6.1
 _ZNK16QtROIoDeviceBase9isClosingEv@Qt_6 6.6.1
 _ZNK17QRemoteObjectHost10metaObjectEv@Qt_6 6.6.1
 _ZNK17QRemoteObjectHost7hostUrlEv@Qt_6 6.6.1
 _ZNK17QRemoteObjectNode10metaObjectEv@Qt_6 6.6.1
 _ZNK17QRemoteObjectNode11registryUrlEv@Qt_6 6.6.1
 _ZNK17QRemoteObjectNode14persistedStoreEv@Qt_6 6.6.1
 _ZNK17QRemoteObjectNode17heartbeatIntervalEv@Qt_6 6.6.1
 _ZNK17QRemoteObjectNode8registryEv@Qt_6 6.6.1
 _ZNK17QRemoteObjectNode9instancesE11QStringView@Qt_6 6.6.1
 _ZNK17QRemoteObjectNode9lastErrorEv@Qt_6 6.6.1
 _ZNK18QtROClientIoDevice10deviceTypeEv@Qt_6 6.6.1
 _ZNK18QtROClientIoDevice10metaObjectEv@Qt_6 6.6.1
 _ZNK18QtROClientIoDevice3urlEv@Qt_6 6.6.1
 _ZNK18QtROServerIoDevice10deviceTypeEv@Qt_6 6.6.1
 _ZNK18QtROServerIoDevice10metaObjectEv@Qt_6 6.6.1
 _ZNK20QRemoteObjectReplica10metaObjectEv@Qt_6 6.6.1
 _ZNK20QRemoteObjectReplica13isInitializedEv@Qt_6 6.6.1
 _ZNK20QRemoteObjectReplica13propAsVariantEi@Qt_6 6.6.1
 _ZNK20QRemoteObjectReplica14isReplicaValidEv@Qt_6 6.6.1
 _ZNK20QRemoteObjectReplica17persistPropertiesERK7QStringRK10QByteArrayRK5QListI8QVariantE@Qt_6 6.6.1
 _ZNK20QRemoteObjectReplica18retrievePropertiesERK7QStringRK10QByteArray@Qt_6 6.6.1
 _ZNK20QRemoteObjectReplica4nodeEv@Qt_6 6.6.1
 _ZNK20QRemoteObjectReplica5stateEv@Qt_6 6.6.1
 _ZNK21QRemoteObjectHostBase10metaObjectEv@Qt_6 6.6.1
 _ZNK21QRemoteObjectHostBase7hostUrlEv@Qt_6 6.6.1
 _ZNK21QRemoteObjectRegistry10metaObjectEv@Qt_6 6.6.1
 _ZNK21QRemoteObjectRegistry15sourceLocationsEv@Qt_6 6.6.1
 _ZNK21QRemoteObjectRegistry23bindableSourceLocationsEv@Qt_6 6.6.1
 _ZNK24QRemoteObjectPendingCall10isFinishedEv@Qt_6 6.6.1
 _ZNK24QRemoteObjectPendingCall11returnValueEv@Qt_6 6.6.1
 _ZNK24QRemoteObjectPendingCall5errorEv@Qt_6 6.6.1
 _ZNK25QAbstractItemModelReplica10headerDataEiN2Qt11OrientationEi@Qt_6 6.6.1
 _ZNK25QAbstractItemModelReplica10metaObjectEv@Qt_6 6.6.1
 _ZNK25QAbstractItemModelReplica11columnCountERK11QModelIndex@Qt_6 6.6.1
 _ZNK25QAbstractItemModelReplica11hasChildrenERK11QModelIndex@Qt_6 6.6.1
 _ZNK25QAbstractItemModelReplica13isInitializedEv@Qt_6 6.6.1
 _ZNK25QAbstractItemModelReplica13rootCacheSizeEv@Qt_6 6.6.1
 _ZNK25QAbstractItemModelReplica14availableRolesEv@Qt_6 6.6.1
 _ZNK25QAbstractItemModelReplica14selectionModelEv@Qt_6 6.6.1
 _ZNK25QAbstractItemModelReplica4dataERK11QModelIndexi@Qt_6 6.6.1
 _ZNK25QAbstractItemModelReplica5flagsERK11QModelIndex@Qt_6 6.6.1
 _ZNK25QAbstractItemModelReplica5indexEiiRK11QModelIndex@Qt_6 6.6.1
 _ZNK25QAbstractItemModelReplica6parentERK11QModelIndex@Qt_6 6.6.1
 _ZNK25QAbstractItemModelReplica7hasDataERK11QModelIndexi@Qt_6 6.6.1
 _ZNK25QAbstractItemModelReplica8rowCountERK11QModelIndex@Qt_6 6.6.1
 _ZNK25QAbstractItemModelReplica9multiDataERK11QModelIndex18QModelRoleDataSpan@Qt_6 6.6.1
 _ZNK25QAbstractItemModelReplica9roleNamesEv@Qt_6 6.6.1
 _ZNK25QConnectionAbstractServer10metaObjectEv@Qt_6 6.6.1
 _ZNK25QRemoteObjectRegistryHost10metaObjectEv@Qt_6 6.6.1
 _ZNK26QRemoteObjectSettingsStore10metaObjectEv@Qt_6 6.6.1
 _ZNK27QRemoteObjectDynamicReplica10metaObjectEv@Qt_6 6.6.1
 _ZNK31QRemoteObjectPendingCallWatcher10isFinishedEv@Qt_6 6.6.1
 _ZNK31QRemoteObjectPendingCallWatcher10metaObjectEv@Qt_6 6.6.1
 _ZNK35QRemoteObjectAbstractPersistedStore10metaObjectEv@Qt_6 6.6.1
 _ZSt19piecewise_construct@Qt_6 6.6.1
 _ZTI12SourceApiMap@Qt_6 6.6.1
 _ZTI16QtROIoDeviceBase@Qt_6 6.6.1
 _ZTI17QRemoteObjectHost@Qt_6 6.6.1
 _ZTI17QRemoteObjectNode@Qt_6 6.6.1
 _ZTI18QtROClientIoDevice@Qt_6 6.6.1
 _ZTI18QtROServerIoDevice@Qt_6 6.6.1
 _ZTI20QRemoteObjectReplica@Qt_6 6.6.1
 _ZTI21QRemoteObjectHostBase@Qt_6 6.6.1
 _ZTI21QRemoteObjectRegistry@Qt_6 6.6.1
 _ZTI24QRemoteObjectPendingCall@Qt_6 6.6.1
 _ZTI25QAbstractItemModelReplica@Qt_6 6.6.1
 _ZTI25QConnectionAbstractServer@Qt_6 6.6.1
 _ZTI25QRemoteObjectRegistryHost@Qt_6 6.6.1
 _ZTI26QRemoteObjectSettingsStore@Qt_6 6.6.1
 _ZTI27QRemoteObjectDynamicReplica@Qt_6 6.6.1
 _ZTI31QRemoteObjectPendingCallWatcher@Qt_6 6.6.1
 _ZTI35QRemoteObjectAbstractPersistedStore@Qt_6 6.6.1
 (arch=armel riscv64)_ZTIN9__gnu_cxx7__mutexE@Qt_6 6.6.1
 (arch=armel riscv64)_ZTISt11_Mutex_baseILN9__gnu_cxx12_Lock_policyE1EE@Qt_6 6.6.1
 (arch=!armel !riscv64)_ZTISt11_Mutex_baseILN9__gnu_cxx12_Lock_policyE2EE@Qt_6 6.6.1
 (arch=armel riscv64)_ZTISt16_Sp_counted_baseILN9__gnu_cxx12_Lock_policyE1EE@Qt_6 6.6.1
 (arch=!armel !riscv64)_ZTISt16_Sp_counted_baseILN9__gnu_cxx12_Lock_policyE2EE@Qt_6 6.6.1
 _ZTIZN9QMetaType17registerConverterI5QHashI7QString31QRemoteObjectSourceLocationInfoE9QIterableI16QMetaAssociationEN9QtPrivate34QAssociativeIterableConvertFunctorIS4_EEEEbT1_EUlPKvPvE_@Qt_6 6.6.1
 _ZTIZN9QMetaType17registerConverterI5QHashIi10QByteArrayE9QIterableI16QMetaAssociationEN9QtPrivate34QAssociativeIterableConvertFunctorIS3_EEEEbT1_EUlPKvPvE_@Qt_6 6.6.1
 _ZTIZN9QMetaType17registerConverterI5QListI21QPersistentModelIndexE9QIterableI13QMetaSequenceEN9QtPrivate33QSequentialIterableConvertFunctorIS3_EEEEbT1_EUlPKvPvE_@Qt_6 6.6.1
 _ZTIZN9QMetaType17registerConverterI5QListIN2Qt11OrientationEE9QIterableI13QMetaSequenceEN9QtPrivate33QSequentialIterableConvertFunctorIS4_EEEEbT1_EUlPKvPvE_@Qt_6 6.6.1
 _ZTIZN9QMetaType17registerConverterI5QListIN9QtPrivate10ModelIndexEE9QIterableI13QMetaSequenceENS2_33QSequentialIterableConvertFunctorIS4_EEEEbT1_EUlPKvPvE_@Qt_6_PRIVATE_API 6.6.1
 _ZTIZN9QMetaType17registerConverterI5QListIiE9QIterableI13QMetaSequenceEN9QtPrivate33QSequentialIterableConvertFunctorIS2_EEEEbT1_EUlPKvPvE_@Qt_6 6.6.1
 _ZTIZN9QMetaType19registerMutableViewI5QHashI7QString31QRemoteObjectSourceLocationInfoE9QIterableI16QMetaAssociationEN9QtPrivate38QAssociativeIterableMutableViewFunctorIS4_EEEEbT1_EUlPvSC_E_@Qt_6 6.6.1
 _ZTIZN9QMetaType19registerMutableViewI5QHashIi10QByteArrayE9QIterableI16QMetaAssociationEN9QtPrivate38QAssociativeIterableMutableViewFunctorIS3_EEEEbT1_EUlPvSB_E_@Qt_6 6.6.1
 _ZTIZN9QMetaType19registerMutableViewI5QListI21QPersistentModelIndexE9QIterableI13QMetaSequenceEN9QtPrivate37QSequentialIterableMutableViewFunctorIS3_EEEEbT1_EUlPvSB_E_@Qt_6 6.6.1
 _ZTIZN9QMetaType19registerMutableViewI5QListIN2Qt11OrientationEE9QIterableI13QMetaSequenceEN9QtPrivate37QSequentialIterableMutableViewFunctorIS4_EEEEbT1_EUlPvSC_E_@Qt_6 6.6.1
 _ZTIZN9QMetaType19registerMutableViewI5QListIN9QtPrivate10ModelIndexEE9QIterableI13QMetaSequenceENS2_37QSequentialIterableMutableViewFunctorIS4_EEEEbT1_EUlPvSB_E_@Qt_6_PRIVATE_API 6.6.1
 _ZTIZN9QMetaType19registerMutableViewI5QListIiE9QIterableI13QMetaSequenceEN9QtPrivate37QSequentialIterableMutableViewFunctorIS2_EEEEbT1_EUlPvSA_E_@Qt_6 6.6.1
 _ZTS12SourceApiMap@Qt_6 6.6.1
 _ZTS16QtROIoDeviceBase@Qt_6 6.6.1
 _ZTS17QRemoteObjectHost@Qt_6 6.6.1
 _ZTS17QRemoteObjectNode@Qt_6 6.6.1
 _ZTS18QtROClientIoDevice@Qt_6 6.6.1
 _ZTS18QtROServerIoDevice@Qt_6 6.6.1
 _ZTS20QRemoteObjectReplica@Qt_6 6.6.1
 _ZTS21QRemoteObjectHostBase@Qt_6 6.6.1
 _ZTS21QRemoteObjectRegistry@Qt_6 6.6.1
 _ZTS24QRemoteObjectPendingCall@Qt_6 6.6.1
 _ZTS25QAbstractItemModelReplica@Qt_6 6.6.1
 _ZTS25QConnectionAbstractServer@Qt_6 6.6.1
 _ZTS25QRemoteObjectRegistryHost@Qt_6 6.6.1
 _ZTS26QRemoteObjectSettingsStore@Qt_6 6.6.1
 _ZTS27QRemoteObjectDynamicReplica@Qt_6 6.6.1
 _ZTS31QRemoteObjectPendingCallWatcher@Qt_6 6.6.1
 _ZTS35QRemoteObjectAbstractPersistedStore@Qt_6 6.6.1
 (arch=armel riscv64)_ZTSN9__gnu_cxx7__mutexE@Qt_6 6.6.1
 (arch=armel riscv64)_ZTSSt11_Mutex_baseILN9__gnu_cxx12_Lock_policyE1EE@Qt_6 6.6.1
 (arch=!armel !riscv64)_ZTSSt11_Mutex_baseILN9__gnu_cxx12_Lock_policyE2EE@Qt_6 6.6.1
 (arch=armel riscv64)_ZTSSt16_Sp_counted_baseILN9__gnu_cxx12_Lock_policyE1EE@Qt_6 6.6.1
 (arch=!armel !riscv64)_ZTSSt16_Sp_counted_baseILN9__gnu_cxx12_Lock_policyE2EE@Qt_6 6.6.1
 _ZTSZN9QMetaType17registerConverterI5QHashI7QString31QRemoteObjectSourceLocationInfoE9QIterableI16QMetaAssociationEN9QtPrivate34QAssociativeIterableConvertFunctorIS4_EEEEbT1_EUlPKvPvE_@Qt_6 6.6.1
 _ZTSZN9QMetaType17registerConverterI5QHashIi10QByteArrayE9QIterableI16QMetaAssociationEN9QtPrivate34QAssociativeIterableConvertFunctorIS3_EEEEbT1_EUlPKvPvE_@Qt_6 6.6.1
 _ZTSZN9QMetaType17registerConverterI5QListI21QPersistentModelIndexE9QIterableI13QMetaSequenceEN9QtPrivate33QSequentialIterableConvertFunctorIS3_EEEEbT1_EUlPKvPvE_@Qt_6 6.6.1
 _ZTSZN9QMetaType17registerConverterI5QListIN2Qt11OrientationEE9QIterableI13QMetaSequenceEN9QtPrivate33QSequentialIterableConvertFunctorIS4_EEEEbT1_EUlPKvPvE_@Qt_6 6.6.1
 _ZTSZN9QMetaType17registerConverterI5QListIN9QtPrivate10ModelIndexEE9QIterableI13QMetaSequenceENS2_33QSequentialIterableConvertFunctorIS4_EEEEbT1_EUlPKvPvE_@Qt_6_PRIVATE_API 6.6.1
 _ZTSZN9QMetaType17registerConverterI5QListIiE9QIterableI13QMetaSequenceEN9QtPrivate33QSequentialIterableConvertFunctorIS2_EEEEbT1_EUlPKvPvE_@Qt_6 6.6.1
 _ZTSZN9QMetaType19registerMutableViewI5QHashI7QString31QRemoteObjectSourceLocationInfoE9QIterableI16QMetaAssociationEN9QtPrivate38QAssociativeIterableMutableViewFunctorIS4_EEEEbT1_EUlPvSC_E_@Qt_6 6.6.1
 _ZTSZN9QMetaType19registerMutableViewI5QHashIi10QByteArrayE9QIterableI16QMetaAssociationEN9QtPrivate38QAssociativeIterableMutableViewFunctorIS3_EEEEbT1_EUlPvSB_E_@Qt_6 6.6.1
 _ZTSZN9QMetaType19registerMutableViewI5QListI21QPersistentModelIndexE9QIterableI13QMetaSequenceEN9QtPrivate37QSequentialIterableMutableViewFunctorIS3_EEEEbT1_EUlPvSB_E_@Qt_6 6.6.1
 _ZTSZN9QMetaType19registerMutableViewI5QListIN2Qt11OrientationEE9QIterableI13QMetaSequenceEN9QtPrivate37QSequentialIterableMutableViewFunctorIS4_EEEEbT1_EUlPvSC_E_@Qt_6 6.6.1
 _ZTSZN9QMetaType19registerMutableViewI5QListIN9QtPrivate10ModelIndexEE9QIterableI13QMetaSequenceENS2_37QSequentialIterableMutableViewFunctorIS4_EEEEbT1_EUlPvSB_E_@Qt_6_PRIVATE_API 6.6.1
 _ZTSZN9QMetaType19registerMutableViewI5QListIiE9QIterableI13QMetaSequenceEN9QtPrivate37QSequentialIterableMutableViewFunctorIS2_EEEEbT1_EUlPvSA_E_@Qt_6 6.6.1
 _ZTV12SourceApiMap@Qt_6 6.6.1
 _ZTV16QtROIoDeviceBase@Qt_6 6.6.1
 _ZTV17QRemoteObjectHost@Qt_6 6.6.1
 _ZTV17QRemoteObjectNode@Qt_6 6.6.1
 _ZTV18QtROClientIoDevice@Qt_6 6.6.1
 _ZTV18QtROServerIoDevice@Qt_6 6.6.1
 _ZTV20QRemoteObjectReplica@Qt_6 6.6.1
 _ZTV21QRemoteObjectHostBase@Qt_6 6.6.1
 _ZTV21QRemoteObjectRegistry@Qt_6 6.6.1
 _ZTV25QAbstractItemModelReplica@Qt_6 6.6.1
 _ZTV25QConnectionAbstractServer@Qt_6 6.6.1
 _ZTV25QRemoteObjectRegistryHost@Qt_6 6.6.1
 _ZTV26QRemoteObjectSettingsStore@Qt_6 6.6.1
 _ZTV27QRemoteObjectDynamicReplica@Qt_6 6.6.1
 _ZTV31QRemoteObjectPendingCallWatcher@Qt_6 6.6.1
 _ZTV35QRemoteObjectAbstractPersistedStore@Qt_6 6.6.1
 (optional=templinst)_ZZN9QMetaType21registerConverterImplI5QHashI7QString31QRemoteObjectSourceLocationInfoE9QIterableI16QMetaAssociationEEEbSt8functionIFbPKvPvEES_S_E10unregister@Qt_6 6.6.1
 (optional=templinst)_ZZN9QMetaType21registerConverterImplI5QHashIi10QByteArrayE9QIterableI16QMetaAssociationEEEbSt8functionIFbPKvPvEES_S_E10unregister@Qt_6 6.6.1
 (optional=templinst)_ZZN9QMetaType21registerConverterImplI5QListI21QPersistentModelIndexE9QIterableI13QMetaSequenceEEEbSt8functionIFbPKvPvEES_S_E10unregister@Qt_6 6.6.1
 (optional=templinst)_ZZN9QMetaType21registerConverterImplI5QListIN2Qt11OrientationEE9QIterableI13QMetaSequenceEEEbSt8functionIFbPKvPvEES_S_E10unregister@Qt_6 6.6.1
 (optional=templinst)_ZZN9QMetaType21registerConverterImplI5QListIN9QtPrivate10ModelIndexEE9QIterableI13QMetaSequenceEEEbSt8functionIFbPKvPvEES_S_E10unregister@Qt_6_PRIVATE_API 6.6.1
 (optional=templinst)_ZZN9QMetaType21registerConverterImplI5QListIiE9QIterableI13QMetaSequenceEEEbSt8functionIFbPKvPvEES_S_E10unregister@Qt_6 6.6.1
 (optional=templinst)_ZZN9QMetaType23registerMutableViewImplI5QHashI7QString31QRemoteObjectSourceLocationInfoE9QIterableI16QMetaAssociationEEEbSt8functionIFbPvS9_EES_S_E10unregister@Qt_6 6.6.1
 (optional=templinst)_ZZN9QMetaType23registerMutableViewImplI5QHashIi10QByteArrayE9QIterableI16QMetaAssociationEEEbSt8functionIFbPvS8_EES_S_E10unregister@Qt_6 6.6.1
 (optional=templinst)_ZZN9QMetaType23registerMutableViewImplI5QListI21QPersistentModelIndexE9QIterableI13QMetaSequenceEEEbSt8functionIFbPvS8_EES_S_E10unregister@Qt_6 6.6.1
 (optional=templinst)_ZZN9QMetaType23registerMutableViewImplI5QListIN2Qt11OrientationEE9QIterableI13QMetaSequenceEEEbSt8functionIFbPvS9_EES_S_E10unregister@Qt_6 6.6.1
 (optional=templinst)_ZZN9QMetaType23registerMutableViewImplI5QListIN9QtPrivate10ModelIndexEE9QIterableI13QMetaSequenceEEEbSt8functionIFbPvS9_EES_S_E10unregister@Qt_6_PRIVATE_API 6.6.1
 (optional=templinst)_ZZN9QMetaType23registerMutableViewImplI5QListIiE9QIterableI13QMetaSequenceEEEbSt8functionIFbPvS7_EES_S_E10unregister@Qt_6 6.6.1
